; Function Attrs: mustprogress nofree norecurse nosync nounwind willreturn memory(argmem: write) uwtable
define noundef nonnull align 8 dereferenceable(225) ptr @_ZN8QuantLib7MakeOIS14withEndOfMonthEb(ptr noundef nonnull returned writeonly align 8 dereferenceable(225) %this, i1 noundef zeroext %flag) local_unnamed_addr #13 align 2 {
entry:
  %storedv.i = zext i1 %flag to i8
  %fixedEndOfMonth_.i = getelementptr inbounds nuw i8, ptr %this, i64 152
  store i8 %storedv.i, ptr %fixedEndOfMonth_.i, align 8, !tbaa !80
  %isDefaultEOM_.i = getelementptr inbounds nuw i8, ptr %this, i64 154
  %overnightEndOfMonth_.i = getelementptr inbounds nuw i8, ptr %this, i64 153
  store i8 %storedv.i, ptr %overnightEndOfMonth_.i, align 1, !tbaa !81
  store i8 0, ptr %isDefaultEOM_.i, align 2, !tbaa !66
  ret ptr %this
}